Certificate:
    Data:
        Version: 3 (0x2)
        Serial Number: 865199 (0xd33af)
    Signature Algorithm: sha1WithRSAEncryption
        Issuer: C=NA, ST=None, L=None, O=Mullvad, 
CN=master.mullvad.net/emailAddress=info@mullvad.net
        Validity
            Not Before: Jan  1 00:00:00 2009 GMT
            Not After : Aug 31 04:12:19 2023 GMT
        Subject: CN=Mullvad627907087246
        Subject Public Key Info:
            Public Key Algorithm: rsaEncryption
                Public-Key: (2048 bit)
                Modulus:
                    00:c9:31:b6:35:90:fc:19:bf:a1:2a:a4:a5:38:d8:
                    60:7a:b1:cf:61:86:52:10:5c:82:31:96:85:1b:73:
                    bb:0f:e0:00:6d:de:13:73:6c:30:f0:9e:24:ef:54:
                    e1:39:ea:c4:a9:70:1d:df:33:7c:ef:2c:e4:41:b2:
                    71:0a:5f:a0:16:f8:3e:55:96:34:91:aa:cc:36:9c:
                    a5:42:45:a8:25:29:cc:95:e6:0b:98:af:04:7a:e2:
                    fe:e4:c4:d8:21:0c:e4:47:bf:ba:93:68:0d:6d:61:
                    d7:f1:53:46:60:36:86:08:d1:40:b8:9c:1e:fd:fd:
                    eb:3b:e4:d7:4b:44:ab:97:8d:89:96:6b:b4:19:ed:
                    81:c2:d5:ec:7b:9c:18:61:7e:67:a8:f5:f1:0f:e2:
                    2c:38:f6:95:b2:0f:6f:a4:6f:0a:df:3b:2f:03:5c:
                    79:0b:9f:49:12:53:37:ad:2f:06:9d:80:d0:12:5d:
                    04:0d:84:b8:f9:68:c0:8d:13:7a:d9:9a:35:8d:54:
                    b0:1d:17:5a:fb:e2:c1:12:dc:f7:f9:94:b4:41:3e:
                    80:1c:7d:9f:87:4f:61:da:c0:64:cf:29:12:83:97:
                    2f:95:e6:7e:79:a1:68:b5:05:53:1f:bd:65:b6:8f:
                    3f:c0:03:cc:3f:e3:f6:67:d9:d1:71:23:a9:d2:46:
                    5b:af
                Exponent: 65537 (0x10001)
        X509v3 extensions:
            X509v3 Basic Constraints: 
                CA:FALSE
            Netscape Comment: 
                Easy-RSA Generated Certificate
            X509v3 Subject Key Identifier: 
                
B9:9C:D7:7E:E5:44:A9:05:F9:C1:5A:C1:CC:81:3E:B2:FD:29:88:46
            X509v3 Authority Key Identifier: 
                
keyid:75:8A:14:92:0D:F3:6E:B7:36:4F:8B:4F:15:6C:3F:18:15:90:64:DE
                DirName:/C=NA/ST=None/L=None/O=Mullvad/CN=Mullvad 
CA/emailAddress=info@mullvad.net
                serial:03

            X509v3 Extended Key Usage: 
                TLS Web Client Authentication
            X509v3 Key Usage: 
                Digital Signature
    Signature Algorithm: sha1WithRSAEncryption
         b4:f5:a0:96:1c:2f:90:7c:e8:9c:a1:f3:31:8d:fe:e2:28:42:
         44:40:24:b3:9c:e6:ae:36:2f:5d:13:c5:6f:0c:b6:05:b4:21:
         e9:3a:4d:28:fc:73:ea:fc:c9:72:63:16:44:66:d9:8f:c8:11:
         3e:23:af:90:65:c7:ad:8c:2e:04:d4:a0:c5:d7:4c:6d:04:68:
         15:2c:ba:db:34:f3:ab:46:30:2f:70:0d:9d:6a:e9:72:54:dd:
         f1:ef:28:ef:38:46:7c:19:14:54:98:41:4f:26:ba:78:8e:84:
         c4:62:61:c1:2c:e0:45:79:87:e4:09:05:ee:ef:20:89:89:c3:
         37:fc:e8:ad:94:62:81:6c:9e:ca:54:a1:30:c2:cd:5f:0b:45:
         fd:99:ed:71:53:54:0f:05:c8:86:8c:e9:61:91:71:0b:00:1f:
         dd:5f:1d:93:8a:84:5d:f2:f9:68:65:74:d3:e0:77:a3:64:ec:
         64:55:fd:9d:ad:5a:67:73:bd:8d:c3:7d:1c:d5:78:c8:34:24:
         ee:d2:ad:42:e4:26:ac:83:ff:c7:21:bb:0d:57:a1:83:24:28:
         9e:31:5a:af:e6:ba:2a:1b:06:b2:6f:f2:33:9b:d0:e2:01:75:
         e8:30:1f:d0:24:d7:a3:59:8c:cd:ba:bb:1c:b4:b1:27:3e:e0:
         e9:72:32:09
-----BEGIN CERTIFICATE-----
MIIENzCCAx+gAwIBAgIDDTOvMA0GCSqGSIb3DQEBBQUAMHsxCzAJBgNVBAYTAk5B
MQ0wCwYDVQQIEwROb25lMQ0wCwYDVQQHEwROb25lMRAwDgYDVQQKEwdNdWxsdmFk
MRswGQYDVQQDExJtYXN0ZXIubXVsbHZhZC5uZXQxHzAdBgkqhkiG9w0BCQEWEGlu
Zm9AbXVsbHZhZC5uZXQwHhcNMDkwMTAxMDAwMDAwWhcNMjMwODMxMDQxMjE5WjAe
MRwwGgYDVQQDExNNdWxsdmFkNjI3OTA3MDg3MjQ2MIIBIjANBgkqhkiG9w0BAQEF
AAOCAQ8AMIIBCgKCAQEAyTG2NZD8Gb+hKqSlONhgerHPYYZSEFyCMZaFG3O7D+AA
bd4Tc2ww8J4k71ThOerEqXAd3zN87yzkQbJxCl+gFvg+VZY0karMNpylQkWoJSnM
leYLmK8EeuL+5MTYIQzkR7+6k2gNbWHX8VNGYDaGCNFAuJwe/f3rO+TXS0Srl42J
lmu0Ge2BwtXse5wYYX5nqPXxD+IsOPaVsg9vpG8K3zsvA1x5C59JElM3rS8GnYDQ
El0EDYS4+WjAjRN62Zo1jVSwHRda++LBEtz3+ZS0QT6AHH2fh09h2sBkzykSg5cv
leZ+eaFotQVTH71lto8/wAPMP+P2Z9nRcSOp0kZbrwIDAQABo4IBHzCCARswCQYD
VR0TBAIwADAtBglghkgBhvhCAQ0EIBYeRWFzeS1SU0EgR2VuZXJhdGVkIENlcnRp
ZmljYXRlMB0GA1UdDgQWBBS5nNd+5USpBfnBWsHMgT6y/SmIRjCBnQYDVR0jBIGV
MIGSgBR1ihSSDfNutzZPi08VbD8YFZBk3qF3pHUwczELMAkGA1UEBhMCTkExDTAL
BgNVBAgTBE5vbmUxDTALBgNVBAcTBE5vbmUxEDAOBgNVBAoTB011bGx2YWQxEzAR
BgNVBAMTCk11bGx2YWQgQ0ExHzAdBgkqhkiG9w0BCQEWEGluZm9AbXVsbHZhZC5u
ZXSCAQMwEwYDVR0lBAwwCgYIKwYBBQUHAwIwCwYDVR0PBAQDAgeAMA0GCSqGSIb3
DQEBBQUAA4IBAQC09aCWHC+QfOicofMxjf7iKEJEQCSznOauNi9dE8VvDLYFtCHp
Ok0o/HPq/MlyYxZEZtmPyBE+I6+QZcetjC4E1KDF10xtBGgVLLrbNPOrRjAvcA2d
aulyVN3x7yjvOEZ8GRRUmEFPJrp4joTEYmHBLOBFeYfkCQXu7yCJicM3/OitlGKB
bJ7KVKEwws1fC0X9me1xU1QPBciGjOlhkXELAB/dXx2TioRd8vloZXTT4HejZOxk
Vf2drVpnc72Nw30c1XjINCTu0q1C5Casg//HIbsNV6GDJCieMVqv5roqGwayb/Iz
m9DiAXXoMB/QJNejWYzNursctLEnPuDpcjIJ
-----END CERTIFICATE-----
